; ModuleID = '27/89.c'
source_filename = "27/89.c"
target datalayout = "e-m:e-p270:32:32-p271:32:32-p272:64:64-i64:64-f80:128-n8:16:32:64-S128"
target triple = "x86_64-pc-linux-gnu"

@.str = private unnamed_addr constant [3 x i8] c"%d\00", align 1
@.str.1 = private unnamed_addr constant [12 x i8] c"%lf %lf %lf\00", align 1
@.str.2 = private unnamed_addr constant [17 x i8] c"x1=%.5f;x2=%.5f\0A\00", align 1
@.str.3 = private unnamed_addr constant [12 x i8] c"x1=x2=%.5f\0A\00", align 1
@.str.4 = private unnamed_addr constant [29 x i8] c"x1=%.5f+%.5fi;x2=%.5f-%.5fi\0A\00", align 1

; Function Attrs: noinline nounwind uwtable
define dso_local void @main() #0 {
  %1 = alloca i32, align 4
  %2 = alloca double, align 8
  %3 = alloca double, align 8
  %4 = alloca double, align 8
  %5 = alloca double, align 8
  %6 = alloca double, align 8
  %7 = alloca double, align 8
  %8 = alloca double, align 8
  %9 = call i32 (i8*, ...) @__isoc99_scanf(i8* getelementptr inbounds ([3 x i8], [3 x i8]* @.str, i64 0, i64 0), i32* %1)
  br label %10

10:                                               ; preds = %112, %0
  %11 = load i32, i32* %1, align 4
  %12 = add nsw i32 %11, -1
  store i32 %12, i32* %1, align 4
  %13 = icmp ne i32 %11, 0
  br i1 %13, label %14, label %113

14:                                               ; preds = %10
  %15 = call i32 (i8*, ...) @__isoc99_scanf(i8* getelementptr inbounds ([12 x i8], [12 x i8]* @.str.1, i64 0, i64 0), double* %2, double* %3, double* %4)
  %16 = load double, double* %3, align 8
  %17 = load double, double* %3, align 8
  %18 = fmul double %16, %17
  %19 = load double, double* %2, align 8
  %20 = fmul double 4.000000e+00, %19
  %21 = load double, double* %4, align 8
  %22 = fmul double %20, %21
  %23 = fsub double %18, %22
  %24 = fcmp ogt double %23, 0.000000e+00
  br i1 %24, label %25, label %59

25:                                               ; preds = %14
  %26 = load double, double* %3, align 8
  %27 = fneg double %26
  %28 = load double, double* %3, align 8
  %29 = load double, double* %3, align 8
  %30 = fmul double %28, %29
  %31 = load double, double* %2, align 8
  %32 = fmul double 4.000000e+00, %31
  %33 = load double, double* %4, align 8
  %34 = fmul double %32, %33
  %35 = fsub double %30, %34
  %36 = call double @sqrt(double %35) #3
  %37 = fadd double %27, %36
  %38 = load double, double* %2, align 8
  %39 = fmul double 2.000000e+00, %38
  %40 = fdiv double %37, %39
  store double %40, double* %5, align 8
  %41 = load double, double* %3, align 8
  %42 = fneg double %41
  %43 = load double, double* %3, align 8
  %44 = load double, double* %3, align 8
  %45 = fmul double %43, %44
  %46 = load double, double* %2, align 8
  %47 = fmul double 4.000000e+00, %46
  %48 = load double, double* %4, align 8
  %49 = fmul double %47, %48
  %50 = fsub double %45, %49
  %51 = call double @sqrt(double %50) #3
  %52 = fsub double %42, %51
  %53 = load double, double* %2, align 8
  %54 = fmul double 2.000000e+00, %53
  %55 = fdiv double %52, %54
  store double %55, double* %6, align 8
  %56 = load double, double* %5, align 8
  %57 = load double, double* %6, align 8
  %58 = call i32 (i8*, ...) @printf(i8* getelementptr inbounds ([17 x i8], [17 x i8]* @.str.2, i64 0, i64 0), double %56, double %57)
  br label %112

59:                                               ; preds = %14
  %60 = load double, double* %3, align 8
  %61 = load double, double* %3, align 8
  %62 = fmul double %60, %61
  %63 = load double, double* %2, align 8
  %64 = fmul double 4.000000e+00, %63
  %65 = load double, double* %4, align 8
  %66 = fmul double %64, %65
  %67 = fsub double %62, %66
  %68 = fcmp oeq double %67, 0.000000e+00
  br i1 %68, label %69, label %77

69:                                               ; preds = %59
  %70 = load double, double* %3, align 8
  %71 = fneg double %70
  %72 = load double, double* %2, align 8
  %73 = fmul double 2.000000e+00, %72
  %74 = fdiv double %71, %73
  store double %74, double* %5, align 8
  %75 = load double, double* %5, align 8
  %76 = call i32 (i8*, ...) @printf(i8* getelementptr inbounds ([12 x i8], [12 x i8]* @.str.3, i64 0, i64 0), double %75)
  br label %111

77:                                               ; preds = %59
  %78 = load double, double* %3, align 8
  %79 = load double, double* %3, align 8
  %80 = fmul double %78, %79
  %81 = load double, double* %2, align 8
  %82 = fmul double 4.000000e+00, %81
  %83 = load double, double* %4, align 8
  %84 = fmul double %82, %83
  %85 = fsub double %80, %84
  %86 = fcmp olt double %85, 0.000000e+00
  br i1 %86, label %87, label %110

87:                                               ; preds = %77
  %88 = load double, double* %3, align 8
  %89 = fneg double %88
  %90 = load double, double* %2, align 8
  %91 = fmul double 2.000000e+00, %90
  %92 = fdiv double %89, %91
  store double %92, double* %7, align 8
  %93 = load double, double* %2, align 8
  %94 = fmul double 4.000000e+00, %93
  %95 = load double, double* %4, align 8
  %96 = fmul double %94, %95
  %97 = load double, double* %3, align 8
  %98 = load double, double* %3, align 8
  %99 = fmul double %97, %98
  %100 = fsub double %96, %99
  %101 = call double @sqrt(double %100) #3
  %102 = load double, double* %2, align 8
  %103 = fmul double 2.000000e+00, %102
  %104 = fdiv double %101, %103
  store double %104, double* %8, align 8
  %105 = load double, double* %7, align 8
  %106 = load double, double* %8, align 8
  %107 = load double, double* %7, align 8
  %108 = load double, double* %8, align 8
  %109 = call i32 (i8*, ...) @printf(i8* getelementptr inbounds ([29 x i8], [29 x i8]* @.str.4, i64 0, i64 0), double %105, double %106, double %107, double %108)
  br label %110

110:                                              ; preds = %87, %77
  br label %111

111:                                              ; preds = %110, %69
  br label %112

112:                                              ; preds = %111, %25
  br label %10

113:                                              ; preds = %10
  ret void
}

declare dso_local i32 @__isoc99_scanf(i8*, ...) #1

; Function Attrs: nounwind
declare dso_local double @sqrt(double) #2

declare dso_local i32 @printf(i8*, ...) #1


!llvm.module.flags = !{!0}
!llvm.ident = !{!1}

!0 = !{i32 1, !"wchar_size", i32 4}
!1 = !{!"clang version 10.0.0-4ubuntu1 "}
